target datalayout = "e-m:e-p270:32:32-p271:32:32-p272:64:64-i64:64-i128:128-f80:128-n8:16:32:64-S128"
target triple = "x86_64-pc-linux-gnu"

%class.CellTypeState = type { i32 }
%class.methodHandle = type { ptr, ptr }
%class.RetTable = type { ptr }
%class.GenerateOopMap = type { ptr, %class.methodHandle, %class.RetTable, i32, i32, i32, i32, i8, %class.Handle, i8, i8, i8, i32, ptr, ptr, i32, i32, ptr, i32, i32, %class.ResourceBitMap, i8, i8, ptr, ptr, i8, i32, ptr, ptr }
%class.Handle = type { ptr }
%class.ResourceBitMap = type { %class.GrowableBitMap }
%class.GrowableBitMap = type { %class.BitMap }
%class.BitMap = type { ptr, i64 }

; Function Attrs: mustprogress nounwind uwtable
define linkonce_odr hidden i32 @_ZN13CellTypeState8make_anyEi(i32 noundef %0) #1 comdat align 2 {
  %2 = alloca %class.CellTypeState, align 4
  %3 = alloca i32, align 4
  store i32 %0, ptr %3, align 4
  %4 = load i32, ptr %3, align 4
  %5 = getelementptr inbounds %class.CellTypeState, ptr %2, i32 0, i32 0
  store i32 %4, ptr %5, align 4
  %6 = getelementptr inbounds %class.CellTypeState, ptr %2, i32 0, i32 0
  %7 = load i32, ptr %6, align 4
  ret i32 %7
}

; Function Attrs: mustprogress nounwind uwtable
define linkonce_odr hidden i32 @_ZN13CellTypeState13make_slot_refEi(i32 noundef %0) #1 comdat align 2 {
  %2 = alloca %class.CellTypeState, align 4
  %3 = alloca i32, align 4
  store i32 %0, ptr %3, align 4
  %4 = load i32, ptr %3, align 4
  %5 = and i32 %4, 16777215
  %6 = or i32 1191182336, %5
  %7 = call i32 @_ZN13CellTypeState8make_anyEi(i32 noundef %6)
  %8 = getelementptr inbounds %class.CellTypeState, ptr %2, i32 0, i32 0
  store i32 %7, ptr %8, align 4
  %9 = getelementptr inbounds %class.CellTypeState, ptr %2, i32 0, i32 0
  %10 = load i32, ptr %9, align 4
  ret i32 %10
}

; Function Attrs: mustprogress nounwind uwtable
define linkonce_odr hidden noundef zeroext i1 @_ZNK13CellTypeState12is_referenceEv(ptr noundef nonnull align 4 dereferenceable(4) %0) #1 comdat align 2 {
  %2 = alloca ptr, align 8
  store ptr %0, ptr %2, align 8
  %3 = load ptr, ptr %2, align 8
  %4 = getelementptr inbounds %class.CellTypeState, ptr %3, i32 0, i32 0
  %5 = load i32, ptr %4, align 4
  %6 = and i32 %5, -268435456
  %7 = icmp eq i32 %6, 1073741824
  ret i1 %7
}

; Function Attrs: mustprogress nounwind uwtable
define linkonce_odr hidden noundef zeroext i1 @_ZNK13CellTypeState11is_info_topEv(ptr noundef nonnull align 4 dereferenceable(4) %0) #1 comdat align 2 {
  %2 = alloca ptr, align 8
  store ptr %0, ptr %2, align 8
  %3 = load ptr, ptr %2, align 8
  %4 = getelementptr inbounds %class.CellTypeState, ptr %3, i32 0, i32 0
  %5 = load i32, ptr %4, align 4
  %6 = and i32 %5, 134217728
  %7 = icmp ne i32 %6, 0
  ret i1 %7
}

; Function Attrs: mustprogress nounwind uwtable
define linkonce_odr hidden noundef zeroext i1 @_ZNK13CellTypeState5equalES_(ptr noundef nonnull align 4 dereferenceable(4) %0, i32 %1) #1 comdat align 2 {
  %3 = alloca %class.CellTypeState, align 4
  %4 = alloca ptr, align 8
  %5 = getelementptr inbounds %class.CellTypeState, ptr %3, i32 0, i32 0
  store i32 %1, ptr %5, align 4
  store ptr %0, ptr %4, align 8
  %6 = load ptr, ptr %4, align 8
  %7 = getelementptr inbounds %class.CellTypeState, ptr %6, i32 0, i32 0
  %8 = load i32, ptr %7, align 4
  %9 = getelementptr inbounds %class.CellTypeState, ptr %3, i32 0, i32 0
  %10 = load i32, ptr %9, align 4
  %11 = icmp eq i32 %8, %10
  ret i1 %11
}

; Function Attrs: mustprogress nounwind uwtable
define hidden i32 @_ZNK13CellTypeState5mergeES_i(ptr noundef nonnull align 4 dereferenceable(4) %0, i32 %1, i32 noundef %2) #1 align 2 {
  %4 = alloca %class.CellTypeState, align 4
  %5 = alloca %class.CellTypeState, align 4
  %6 = alloca ptr, align 8
  %7 = alloca i32, align 4
  %8 = alloca %class.CellTypeState, align 4
  %9 = alloca %class.CellTypeState, align 4
  %10 = getelementptr inbounds %class.CellTypeState, ptr %5, i32 0, i32 0
  store i32 %1, ptr %10, align 4
  store ptr %0, ptr %6, align 8
  store i32 %2, ptr %7, align 4
  %11 = load ptr, ptr %6, align 8
  %12 = getelementptr inbounds %class.CellTypeState, ptr %11, i32 0, i32 0
  %13 = load i32, ptr %12, align 4
  %14 = getelementptr inbounds %class.CellTypeState, ptr %5, i32 0, i32 0
  %15 = load i32, ptr %14, align 4
  %16 = or i32 %13, %15
  %17 = getelementptr inbounds %class.CellTypeState, ptr %4, i32 0, i32 0
  store i32 %16, ptr %17, align 4
  %18 = call noundef zeroext i1 @_ZNK13CellTypeState11is_info_topEv(ptr noundef nonnull align 4 dereferenceable(4) %4)
  br i1 %18, label %35, label %19

19:                                               ; preds = %3
  call void @llvm.memcpy.p0.p0.i64(ptr align 4 %8, ptr align 4 %5, i64 4, i1 false)
  %20 = getelementptr inbounds %class.CellTypeState, ptr %8, i32 0, i32 0
  %21 = load i32, ptr %20, align 4
  %22 = call noundef zeroext i1 @_ZNK13CellTypeState5equalES_(ptr noundef nonnull align 4 dereferenceable(4) %11, i32 %21)
  br i1 %22, label %34, label %23

23:                                               ; preds = %19
  %24 = call noundef zeroext i1 @_ZNK13CellTypeState12is_referenceEv(ptr noundef nonnull align 4 dereferenceable(4) %4)
  br i1 %24, label %25, label %29

25:                                               ; preds = %23
  %26 = load i32, ptr %7, align 4
  %27 = call i32 @_ZN13CellTypeState13make_slot_refEi(i32 noundef %26)
  %28 = getelementptr inbounds %class.CellTypeState, ptr %9, i32 0, i32 0
  store i32 %27, ptr %28, align 4
  call void @llvm.memcpy.p0.p0.i64(ptr align 4 %4, ptr align 4 %9, i64 4, i1 false)
  br label %33

29:                                               ; preds = %23
  %30 = getelementptr inbounds %class.CellTypeState, ptr %4, i32 0, i32 0
  %31 = load i32, ptr %30, align 4
  %32 = or i32 %31, 268435455
  store i32 %32, ptr %30, align 4
  br label %33

33:                                               ; preds = %29, %25
  br label %34

34:                                               ; preds = %33, %19
  br label %35

35:                                               ; preds = %34, %3
  %36 = getelementptr inbounds %class.CellTypeState, ptr %4, i32 0, i32 0
  %37 = load i32, ptr %36, align 4
  ret i32 %37
}

; Function Attrs: mustprogress nounwind uwtable
define hidden noundef zeroext i1 @_ZN14GenerateOopMap27merge_monitor_state_vectorsEP13CellTypeStateS1_(ptr noundef nonnull align 8 dereferenceable(176) %0, ptr noundef %1, ptr noundef %2) #1 align 2 {
  %4 = alloca ptr, align 8
  %5 = alloca ptr, align 8
  %6 = alloca ptr, align 8
  %7 = alloca i8, align 1
  %8 = alloca i32, align 4
  %9 = alloca i32, align 4
  %10 = alloca i32, align 4
  %11 = alloca %class.CellTypeState, align 4
  %12 = alloca %class.CellTypeState, align 4
  %13 = alloca %class.CellTypeState, align 4
  store ptr %0, ptr %4, align 8
  store ptr %1, ptr %5, align 8
  store ptr %2, ptr %6, align 8
  %14 = load ptr, ptr %4, align 8
  store i8 0, ptr %7, align 1
  %15 = getelementptr inbounds %class.GenerateOopMap, ptr %14, i32 0, i32 5
  %16 = load i32, ptr %15, align 8
  %17 = icmp sgt i32 %16, 0
  br i1 %17, label %18, label %74

18:                                               ; preds = %3
  %19 = getelementptr inbounds %class.GenerateOopMap, ptr %14, i32 0, i32 16
  %20 = load i32, ptr %19, align 4
  %21 = icmp ne i32 %20, -1
  br i1 %21, label %22, label %74

22:                                               ; preds = %18
  %23 = getelementptr inbounds %class.GenerateOopMap, ptr %14, i32 0, i32 3
  %24 = load i32, ptr %23, align 8
  %25 = getelementptr inbounds %class.GenerateOopMap, ptr %14, i32 0, i32 4
  %26 = load i32, ptr %25, align 4
  %27 = add nsw i32 %24, %26
  store i32 %27, ptr %8, align 4
  %28 = load i32, ptr %8, align 4
  %29 = getelementptr inbounds %class.GenerateOopMap, ptr %14, i32 0, i32 16
  %30 = load i32, ptr %29, align 4
  %31 = add nsw i32 %28, %30
  store i32 %31, ptr %9, align 4
  %32 = load i32, ptr %9, align 4
  %33 = sub nsw i32 %32, 1
  store i32 %33, ptr %10, align 4
  br label %34

34:                                               ; preds = %70, %22
  %35 = load i32, ptr %10, align 4
  %36 = load i32, ptr %8, align 4
  %37 = icmp sge i32 %35, %36
  br i1 %37, label %38, label %73

38:                                               ; preds = %34
  %39 = load ptr, ptr %5, align 8
  %40 = load i32, ptr %10, align 4
  %41 = sext i32 %40 to i64
  %42 = getelementptr inbounds %class.CellTypeState, ptr %39, i64 %41
  %43 = load ptr, ptr %6, align 8
  %44 = load i32, ptr %10, align 4
  %45 = sext i32 %44 to i64
  %46 = getelementptr inbounds %class.CellTypeState, ptr %43, i64 %45
  call void @llvm.memcpy.p0.p0.i64(ptr align 4 %12, ptr align 4 %46, i64 4, i1 false)
  %47 = load i32, ptr %10, align 4
  %48 = getelementptr inbounds %class.CellTypeState, ptr %12, i32 0, i32 0
  %49 = load i32, ptr %48, align 4
  %50 = call i32 @_ZNK13CellTypeState5mergeES_i(ptr noundef nonnull align 4 dereferenceable(4) %42, i32 %49, i32 noundef %47)
  %51 = getelementptr inbounds %class.CellTypeState, ptr %11, i32 0, i32 0
  store i32 %50, ptr %51, align 4
  %52 = load i8, ptr %7, align 1
  %53 = trunc i8 %52 to i1
  br i1 %53, label %63, label %54

54:                                               ; preds = %38
  %55 = load ptr, ptr %6, align 8
  %56 = load i32, ptr %10, align 4
  %57 = sext i32 %56 to i64
  %58 = getelementptr inbounds %class.CellTypeState, ptr %55, i64 %57
  call void @llvm.memcpy.p0.p0.i64(ptr align 4 %13, ptr align 4 %58, i64 4, i1 false)
  %59 = getelementptr inbounds %class.CellTypeState, ptr %13, i32 0, i32 0
  %60 = load i32, ptr %59, align 4
  %61 = call noundef zeroext i1 @_ZNK13CellTypeState5equalES_(ptr noundef nonnull align 4 dereferenceable(4) %11, i32 %60)
  %62 = xor i1 %61, true
  br label %63

63:                                               ; preds = %54, %38
  %64 = phi i1 [ true, %38 ], [ %62, %54 ]
  %65 = zext i1 %64 to i8
  store i8 %65, ptr %7, align 1
  %66 = load ptr, ptr %6, align 8
  %67 = load i32, ptr %10, align 4
  %68 = sext i32 %67 to i64
  %69 = getelementptr inbounds %class.CellTypeState, ptr %66, i64 %68
  call void @llvm.memcpy.p0.p0.i64(ptr align 4 %69, ptr align 4 %11, i64 4, i1 false)
  br label %70

70:                                               ; preds = %63
  %71 = load i32, ptr %10, align 4
  %72 = add nsw i32 %71, -1
  store i32 %72, ptr %10, align 4
  br label %34, !llvm.loop !22

73:                                               ; preds = %34
  br label %74

74:                                               ; preds = %73, %18, %3
  %75 = load i8, ptr %7, align 1
  %76 = trunc i8 %75 to i1
  ret i1 %76
}