; Function Attrs: mustprogress nofree norecurse nosync nounwind memory(argmem: readwrite) uwtable
define hidden noundef zeroext i1 @_ZN14GenerateOopMap27merge_monitor_state_vectorsEP13CellTypeStateS1_(ptr nocapture noundef nonnull readonly align 8 dereferenceable(176) %0, ptr nocapture noundef readonly %1, ptr nocapture noundef %2) local_unnamed_addr #9 align 2 {
  %4 = getelementptr inbounds i8, ptr %0, i64 40
  %5 = load i32, ptr %4, align 8
  %6 = icmp sgt i32 %5, 0
  br i1 %6, label %7, label %.loopexit

7:                                                ; preds = %3
  %8 = getelementptr inbounds i8, ptr %0, i64 92
  %9 = load i32, ptr %8, align 4
  %.not19.not22 = icmp sgt i32 %9, 0
  br i1 %.not19.not22, label %.lr.ph.preheader, label %.loopexit

.lr.ph.preheader:                                 ; preds = %7
  %10 = getelementptr inbounds i8, ptr %0, i64 36
  %11 = load i32, ptr %10, align 4
  %12 = getelementptr inbounds i8, ptr %0, i64 32
  %13 = load i32, ptr %12, align 8
  %14 = add i32 %11, %13
  %15 = add i32 %14, %9
  %16 = sext i32 %15 to i64
  %17 = sext i32 %14 to i64
  br label %.lr.ph

.lr.ph:                                           ; preds = %.lr.ph.preheader, %_ZNK13CellTypeState5mergeES_i.exit
  %indvars.iv = phi i64 [ %16, %.lr.ph.preheader ], [ %indvars.iv.next, %_ZNK13CellTypeState5mergeES_i.exit ]
  %.023 = phi i1 [ false, %.lr.ph.preheader ], [ %35, %_ZNK13CellTypeState5mergeES_i.exit ]
  %indvars.iv.next = add nsw i64 %indvars.iv, -1
  %18 = getelementptr inbounds %class.CellTypeState, ptr %1, i64 %indvars.iv.next
  %19 = getelementptr inbounds %class.CellTypeState, ptr %2, i64 %indvars.iv.next
  %.sroa.01.0.copyload = load i32, ptr %19, align 4
  %20 = load i32, ptr %18, align 4
  %21 = or i32 %20, %.sroa.01.0.copyload
  %22 = and i32 %21, 134217728
  %23 = icmp ne i32 %22, 0
  %24 = icmp eq i32 %20, %.sroa.01.0.copyload
  %or.cond.i = or i1 %24, %23
  br i1 %or.cond.i, label %_ZNK13CellTypeState5mergeES_i.exit, label %25

25:                                               ; preds = %.lr.ph
  %26 = and i32 %21, -268435456
  %27 = icmp eq i32 %26, 1073741824
  br i1 %27, label %28, label %32

28:                                               ; preds = %25
  %29 = trunc nsw i64 %indvars.iv.next to i32
  %30 = and i32 %29, 16777215
  %31 = or disjoint i32 %30, 1191182336
  br label %_ZNK13CellTypeState5mergeES_i.exit

32:                                               ; preds = %25
  %33 = or i32 %21, 268435455
  br label %_ZNK13CellTypeState5mergeES_i.exit

_ZNK13CellTypeState5mergeES_i.exit:               ; preds = %.lr.ph, %28, %32
  %.sroa.0.0.i = phi i32 [ %21, %.lr.ph ], [ %31, %28 ], [ %33, %32 ]
  %34 = icmp ne i32 %.sroa.0.0.i, %.sroa.01.0.copyload
  %35 = select i1 %.023, i1 true, i1 %34
  store i32 %.sroa.0.0.i, ptr %19, align 4
  %.not19.not = icmp sgt i64 %indvars.iv.next, %17
  br i1 %.not19.not, label %.lr.ph, label %.loopexit, !llvm.loop !23

.loopexit:                                        ; preds = %_ZNK13CellTypeState5mergeES_i.exit, %7, %3
  %.1 = phi i1 [ false, %7 ], [ false, %3 ], [ %35, %_ZNK13CellTypeState5mergeES_i.exit ]
  ret i1 %.1
}